; Function Attrs: mustprogress uwtable
define hidden void @_ZN3mbp10term_graph16is_variable_proc9set_declsERK10ref_vectorI9func_decl11ast_managerEb(ptr noundef nonnull align 8 dereferenceable(64) %0, ptr noundef nonnull readonly align 8 captures(none) dereferenceable(16) %1, i1 noundef zeroext %2) local_unnamed_addr #3 align 2 {
  %4 = alloca ptr, align 8
  %5 = zext i1 %2 to i8
  tail call void @_ZN3mbp10term_graph16is_variable_proc5resetEv(ptr noundef nonnull align 8 dereferenceable(64) %0)
  %6 = getelementptr inbounds nuw i8, ptr %0, i64 8
  store i8 %5, ptr %6, align 8, !tbaa !73
  %7 = getelementptr inbounds nuw i8, ptr %1, i64 8
  %8 = load ptr, ptr %7, align 8, !tbaa !80
  %9 = icmp eq ptr %8, null
  br i1 %9, label %._crit_edge, label %_ZNK15ref_vector_coreI9func_decl19ref_manager_wrapperIS0_11ast_managerEE3endEv.exit

_ZNK15ref_vector_coreI9func_decl19ref_manager_wrapperIS0_11ast_managerEE3endEv.exit: ; preds = %3
  %10 = getelementptr inbounds i8, ptr %8, i64 -4
  %11 = load i32, ptr %10, align 4, !tbaa !34
  %12 = zext i32 %11 to i64
  %13 = getelementptr inbounds nuw ptr, ptr %8, i64 %12
  %.not8 = icmp eq i32 %11, 0
  br i1 %.not8, label %._crit_edge, label %.lr.ph

.lr.ph:                                           ; preds = %_ZNK15ref_vector_coreI9func_decl19ref_manager_wrapperIS0_11ast_managerEE3endEv.exit
  %14 = getelementptr inbounds nuw i8, ptr %0, i64 16
  br label %15

._crit_edge:                                      ; preds = %15, %3, %_ZNK15ref_vector_coreI9func_decl19ref_manager_wrapperIS0_11ast_managerEE3endEv.exit
  ret void

15:                                               ; preds = %.lr.ph, %15
  %.09 = phi ptr [ %8, %.lr.ph ], [ %17, %15 ]
  %16 = load ptr, ptr %.09, align 8, !tbaa !83
  call void @llvm.lifetime.start.p0(i64 8, ptr nonnull %4) #27
  store ptr %16, ptr %4, align 8, !tbaa !83
  call void @_ZN14core_hashtableI14obj_hash_entryI9func_declE12obj_ptr_hashIS1_E6ptr_eqIS1_EE6insertEOPS1_(ptr noundef nonnull align 8 dereferenceable(20) %14, ptr noundef nonnull align 8 dereferenceable(8) %4)
  call void @llvm.lifetime.end.p0(i64 8, ptr nonnull %4) #27
  %17 = getelementptr inbounds nuw i8, ptr %.09, i64 8
  %.not = icmp eq ptr %17, %13
  br i1 %.not, label %._crit_edge, label %15
}